target datalayout = "e-m:e-p270:32:32-p271:32:32-p272:64:64-i64:64-i128:128-f80:128-n8:16:32:64-S128"
target triple = "x86_64-pc-linux-gnu"

%struct.index_state = type { ptr, i32, i32, i32, i32, ptr, ptr, ptr, %struct.cache_time, i8, i32, %struct.hashmap, %struct.hashmap, %struct.object_id, ptr, ptr, ptr, ptr, ptr, ptr, ptr }
%struct.cache_time = type { i32, i32 }
%struct.hashmap = type { ptr, ptr, ptr, i32, i32, i32, i32, i8 }
%struct.object_id = type { [32 x i8], i32 }
%struct.cache_entry = type { %struct.hashmap_entry, %struct.stat_data, i32, i32, i32, i32, i32, %struct.object_id, [0 x i8] }
%struct.hashmap_entry = type { ptr, i32 }
%struct.stat_data = type { %struct.cache_time, %struct.cache_time, i32, i32, i32, i32, i32 }
%struct.repository = type { ptr, ptr, ptr, ptr, ptr, %struct.strmap, %struct.strmap, %struct.repo_path_cache, ptr, ptr, ptr, ptr, %struct.repo_settings, ptr, ptr, ptr, ptr, ptr, ptr, i32, i32, i32, ptr, ptr, i32, i32, i8 }
%struct.strmap = type { %struct.hashmap, ptr, i8 }
%struct.repo_path_cache = type { ptr, ptr, ptr, ptr, ptr, ptr, ptr }
%struct.repo_settings = type { i32, i32, i32, i32, i32, i32, i32, i32, i32, i32, i32, i32, ptr, i32, i32, i32, i32, i32, i32, i32, i64, i64, i64 }

@the_repository = external global ptr, align 8
@verify_ce_order = dso_local global i32 0, align 4
@.str.71 = private unnamed_addr constant [33 x i8] c"unordered stage entries in index\00", align 1
@.str.72 = private unnamed_addr constant [44 x i8] c"multiple stage entries for merged file '%s'\00", align 1
@.str.73 = private unnamed_addr constant [33 x i8] c"unordered stage entries for '%s'\00", align 1

; Function Attrs: nounwind uwtable
define internal void @tweak_split_index(ptr noundef %0) #0 {
  %2 = alloca ptr, align 8
  store ptr %0, ptr %2, align 8, !tbaa !4
  %3 = load ptr, ptr @the_repository, align 8, !tbaa !48
  %4 = call i32 @repo_config_get_split_index(ptr noundef %3)
  switch i32 %4, label %9 [
    i32 -1, label %10
    i32 0, label %5
    i32 1, label %7
  ]

5:                                                ; preds = %1
  %6 = load ptr, ptr %2, align 8, !tbaa !4
  call void @remove_split_index(ptr noundef %6)
  br label %10

7:                                                ; preds = %1
  %8 = load ptr, ptr %2, align 8, !tbaa !4
  call void @add_split_index(ptr noundef %8)
  br label %10

9:                                                ; preds = %1
  br label %10

10:                                               ; preds = %9, %7, %5, %1
  ret void
}

; Function Attrs: nounwind uwtable
define internal void @tweak_untracked_cache(ptr noundef %0) #0 {
  %2 = alloca ptr, align 8
  %3 = alloca ptr, align 8
  store ptr %0, ptr %2, align 8, !tbaa !4
  call void @llvm.lifetime.start.p0(i64 8, ptr %3) #12
  %4 = load ptr, ptr @the_repository, align 8, !tbaa !48
  store ptr %4, ptr %3, align 8, !tbaa !48
  %5 = load ptr, ptr %3, align 8, !tbaa !48
  call void @prepare_repo_settings(ptr noundef %5)
  %6 = load ptr, ptr %3, align 8, !tbaa !48
  %7 = getelementptr inbounds nuw %struct.repository, ptr %6, i32 0, i32 12
  %8 = getelementptr inbounds nuw %struct.repo_settings, ptr %7, i32 0, i32 15
  %9 = load i32, ptr %8, align 8, !tbaa !285
  switch i32 %9, label %14 [
    i32 1, label %10
    i32 2, label %12
    i32 0, label %14
  ]

10:                                               ; preds = %1
  %11 = load ptr, ptr %2, align 8, !tbaa !4
  call void @remove_untracked_cache(ptr noundef %11)
  br label %14

12:                                               ; preds = %1
  %13 = load ptr, ptr %2, align 8, !tbaa !4
  call void @add_untracked_cache(ptr noundef %13)
  br label %14

14:                                               ; preds = %1, %1, %12, %10
  call void @llvm.lifetime.end.p0(i64 8, ptr %3) #12
  ret void
}

; Function Attrs: nounwind uwtable
define internal void @check_ce_order(ptr noundef %0) #0 {
  %2 = alloca ptr, align 8
  %3 = alloca i32, align 4
  %4 = alloca i32, align 4
  %5 = alloca ptr, align 8
  %6 = alloca ptr, align 8
  %7 = alloca i32, align 4
  store ptr %0, ptr %2, align 8, !tbaa !4
  call void @llvm.lifetime.start.p0(i64 4, ptr %3) #12
  %8 = load i32, ptr @verify_ce_order, align 4, !tbaa !9
  %9 = icmp ne i32 %8, 0
  br i1 %9, label %11, label %10

10:                                               ; preds = %1
  store i32 1, ptr %4, align 4
  br label %83

11:                                               ; preds = %1
  store i32 1, ptr %3, align 4, !tbaa !9
  br label %12

12:                                               ; preds = %79, %11
  %13 = load i32, ptr %3, align 4, !tbaa !9
  %14 = load ptr, ptr %2, align 8, !tbaa !4
  %15 = getelementptr inbounds nuw %struct.index_state, ptr %14, i32 0, i32 2
  %16 = load i32, ptr %15, align 4, !tbaa !34
  %17 = icmp ult i32 %13, %16
  br i1 %17, label %18, label %82

18:                                               ; preds = %12
  call void @llvm.lifetime.start.p0(i64 8, ptr %5) #12
  %19 = load ptr, ptr %2, align 8, !tbaa !4
  %20 = getelementptr inbounds nuw %struct.index_state, ptr %19, i32 0, i32 0
  %21 = load ptr, ptr %20, align 8, !tbaa !13
  %22 = load i32, ptr %3, align 4, !tbaa !9
  %23 = sub i32 %22, 1
  %24 = zext i32 %23 to i64
  %25 = getelementptr inbounds nuw ptr, ptr %21, i64 %24
  %26 = load ptr, ptr %25, align 8, !tbaa !29
  store ptr %26, ptr %5, align 8, !tbaa !29
  call void @llvm.lifetime.start.p0(i64 8, ptr %6) #12
  %27 = load ptr, ptr %2, align 8, !tbaa !4
  %28 = getelementptr inbounds nuw %struct.index_state, ptr %27, i32 0, i32 0
  %29 = load ptr, ptr %28, align 8, !tbaa !13
  %30 = load i32, ptr %3, align 4, !tbaa !9
  %31 = zext i32 %30 to i64
  %32 = getelementptr inbounds nuw ptr, ptr %29, i64 %31
  %33 = load ptr, ptr %32, align 8, !tbaa !29
  store ptr %33, ptr %6, align 8, !tbaa !29
  call void @llvm.lifetime.start.p0(i64 4, ptr %7) #12
  %34 = load ptr, ptr %5, align 8, !tbaa !29
  %35 = getelementptr inbounds nuw %struct.cache_entry, ptr %34, i32 0, i32 8
  %36 = getelementptr inbounds [0 x i8], ptr %35, i64 0, i64 0
  %37 = load ptr, ptr %6, align 8, !tbaa !29
  %38 = getelementptr inbounds nuw %struct.cache_entry, ptr %37, i32 0, i32 8
  %39 = getelementptr inbounds [0 x i8], ptr %38, i64 0, i64 0
  %40 = call i32 @strcmp(ptr noundef %36, ptr noundef %39) #13
  store i32 %40, ptr %7, align 4, !tbaa !9
  %41 = load i32, ptr %7, align 4, !tbaa !9
  %42 = icmp slt i32 0, %41
  br i1 %42, label %43, label %45

43:                                               ; preds = %18
  %44 = call ptr @_(ptr noundef @.str.71)
  call void (ptr, ...) @die(ptr noundef %44) #14
  unreachable

45:                                               ; preds = %18
  %46 = load i32, ptr %7, align 4, !tbaa !9
  %47 = icmp ne i32 %46, 0
  br i1 %47, label %78, label %48

48:                                               ; preds = %45
  %49 = load ptr, ptr %5, align 8, !tbaa !29
  %50 = getelementptr inbounds nuw %struct.cache_entry, ptr %49, i32 0, i32 3
  %51 = load i32, ptr %50, align 8, !tbaa !9
  %52 = and i32 12288, %51
  %53 = lshr i32 %52, 12
  %54 = icmp ne i32 %53, 0
  br i1 %54, label %60, label %55

55:                                               ; preds = %48
  %56 = call ptr @_(ptr noundef @.str.72)
  %57 = load ptr, ptr %5, align 8, !tbaa !29
  %58 = getelementptr inbounds nuw %struct.cache_entry, ptr %57, i32 0, i32 8
  %59 = getelementptr inbounds [0 x i8], ptr %58, i64 0, i64 0
  call void (ptr, ...) @die(ptr noundef %56, ptr noundef %59) #14
  unreachable

60:                                               ; preds = %48
  %61 = load ptr, ptr %5, align 8, !tbaa !29
  %62 = getelementptr inbounds nuw %struct.cache_entry, ptr %61, i32 0, i32 3
  %63 = load i32, ptr %62, align 8, !tbaa !9
  %64 = and i32 12288, %63
  %65 = lshr i32 %64, 12
  %66 = load ptr, ptr %6, align 8, !tbaa !29
  %67 = getelementptr inbounds nuw %struct.cache_entry, ptr %66, i32 0, i32 3
  %68 = load i32, ptr %67, align 8, !tbaa !9
  %69 = and i32 12288, %68
  %70 = lshr i32 %69, 12
  %71 = icmp ugt i32 %65, %70
  br i1 %71, label %72, label %77

72:                                               ; preds = %60
  %73 = call ptr @_(ptr noundef @.str.73)
  %74 = load ptr, ptr %5, align 8, !tbaa !29
  %75 = getelementptr inbounds nuw %struct.cache_entry, ptr %74, i32 0, i32 8
  %76 = getelementptr inbounds [0 x i8], ptr %75, i64 0, i64 0
  call void (ptr, ...) @die(ptr noundef %73, ptr noundef %76) #14
  unreachable

77:                                               ; preds = %60
  br label %78

78:                                               ; preds = %77, %45
  call void @llvm.lifetime.end.p0(i64 4, ptr %7) #12
  call void @llvm.lifetime.end.p0(i64 8, ptr %6) #12
  call void @llvm.lifetime.end.p0(i64 8, ptr %5) #12
  br label %79

79:                                               ; preds = %78
  %80 = load i32, ptr %3, align 4, !tbaa !9
  %81 = add i32 %80, 1
  store i32 %81, ptr %3, align 4, !tbaa !9
  br label %12, !llvm.loop !284

82:                                               ; preds = %12
  store i32 0, ptr %4, align 4
  br label %83

83:                                               ; preds = %82, %10
  call void @llvm.lifetime.end.p0(i64 4, ptr %3) #12
  %84 = load i32, ptr %4, align 4
  switch i32 %84, label %86 [
    i32 0, label %85
    i32 1, label %85
  ]

85:                                               ; preds = %83, %83
  ret void

86:                                               ; preds = %83
  unreachable
}

; Function Attrs: nounwind uwtable
define internal void @post_read_index_from(ptr noundef %0) #0 {
  %2 = alloca ptr, align 8
  store ptr %0, ptr %2, align 8, !tbaa !4
  %3 = load ptr, ptr %2, align 8, !tbaa !4
  call void @check_ce_order(ptr noundef %3)
  %4 = load ptr, ptr %2, align 8, !tbaa !4
  call void @tweak_untracked_cache(ptr noundef %4)
  %5 = load ptr, ptr %2, align 8, !tbaa !4
  call void @tweak_split_index(ptr noundef %5)
  %6 = load ptr, ptr %2, align 8, !tbaa !4
  call void @tweak_fsmonitor(ptr noundef %6)
  ret void
}