; Function Attrs: nounwind uwtable
define internal fastcc void @post_read_index_from(ptr noundef %0) unnamed_addr #0 {
  %2 = load i32, ptr @verify_ce_order, align 4, !tbaa !32
  %.not.i = icmp eq i32 %2, 0
  br i1 %.not.i, label %check_ce_order.exit, label %.preheader.i

.preheader.i:                                     ; preds = %1
  %3 = getelementptr inbounds nuw i8, ptr %0, i64 12
  %4 = load i32, ptr %3, align 4, !tbaa !34
  %5 = icmp ugt i32 %4, 1
  br i1 %5, label %.lr.ph.i, label %check_ce_order.exit

.lr.ph.i:                                         ; preds = %.preheader.i
  %6 = load ptr, ptr %0, align 8, !tbaa !4
  %wide.trip.count.i = zext i32 %4 to i64
  %.pre.i = load ptr, ptr %6, align 8, !tbaa !25
  br label %7

7:                                                ; preds = %33, %.lr.ph.i
  %8 = phi ptr [ %.pre.i, %.lr.ph.i ], [ %10, %33 ]
  %indvars.iv.i = phi i64 [ 1, %.lr.ph.i ], [ %indvars.iv.next.i, %33 ]
  %9 = getelementptr inbounds nuw ptr, ptr %6, i64 %indvars.iv.i
  %10 = load ptr, ptr %9, align 8, !tbaa !25
  %11 = getelementptr inbounds nuw i8, ptr %8, i64 108
  %12 = getelementptr inbounds nuw i8, ptr %10, i64 108
  %13 = tail call i32 @strcmp(ptr noundef nonnull dereferenceable(1) %11, ptr noundef nonnull dereferenceable(1) %12) #29
  %14 = icmp sgt i32 %13, 0
  br i1 %14, label %15, label %17

15:                                               ; preds = %7
  %16 = tail call fastcc ptr @_(ptr noundef nonnull @.str.71)
  tail call void (ptr, ...) @die(ptr noundef %16) #31
  unreachable

17:                                               ; preds = %7
  %.not17.i = icmp eq i32 %13, 0
  br i1 %.not17.i, label %18, label %33

18:                                               ; preds = %17
  %19 = getelementptr inbounds nuw i8, ptr %8, i64 56
  %20 = load i32, ptr %19, align 8, !tbaa !32
  %21 = lshr i32 %20, 12
  %22 = and i32 %21, 3
  %.not18.i = icmp eq i32 %22, 0
  br i1 %.not18.i, label %23, label %25

23:                                               ; preds = %18
  %24 = tail call fastcc ptr @_(ptr noundef nonnull @.str.72)
  tail call void (ptr, ...) @die(ptr noundef %24, ptr noundef nonnull %11) #31
  unreachable

25:                                               ; preds = %18
  %26 = getelementptr inbounds nuw i8, ptr %10, i64 56
  %27 = load i32, ptr %26, align 8, !tbaa !32
  %28 = lshr i32 %27, 12
  %29 = and i32 %28, 3
  %30 = icmp samesign ugt i32 %22, %29
  br i1 %30, label %31, label %33

31:                                               ; preds = %25
  %32 = tail call fastcc ptr @_(ptr noundef nonnull @.str.73)
  tail call void (ptr, ...) @die(ptr noundef %32, ptr noundef nonnull %11) #31
  unreachable

33:                                               ; preds = %25, %17
  %indvars.iv.next.i = add nuw nsw i64 %indvars.iv.i, 1
  %exitcond.not.i = icmp eq i64 %indvars.iv.next.i, %wide.trip.count.i
  br i1 %exitcond.not.i, label %check_ce_order.exit, label %7, !llvm.loop !139

check_ce_order.exit:                              ; preds = %33, %1, %.preheader.i
  %34 = load ptr, ptr @the_repository, align 8, !tbaa !52
  tail call void @prepare_repo_settings(ptr noundef %34) #30
  %35 = getelementptr inbounds nuw i8, ptr %34, i64 320
  %36 = load i32, ptr %35, align 8, !tbaa !140
  switch i32 %36, label %tweak_untracked_cache.exit [
    i32 1, label %37
    i32 2, label %38
  ]

37:                                               ; preds = %check_ce_order.exit
  tail call void @remove_untracked_cache(ptr noundef %0) #30
  br label %tweak_untracked_cache.exit

38:                                               ; preds = %check_ce_order.exit
  tail call void @add_untracked_cache(ptr noundef %0) #30
  br label %tweak_untracked_cache.exit

tweak_untracked_cache.exit:                       ; preds = %check_ce_order.exit, %37, %38
  %39 = load ptr, ptr @the_repository, align 8, !tbaa !52
  %40 = tail call i32 @repo_config_get_split_index(ptr noundef %39) #30
  switch i32 %40, label %tweak_split_index.exit [
    i32 1, label %42
    i32 0, label %41
  ]

41:                                               ; preds = %tweak_untracked_cache.exit
  tail call void @remove_split_index(ptr noundef %0) #30
  br label %tweak_split_index.exit

42:                                               ; preds = %tweak_untracked_cache.exit
  tail call void @add_split_index(ptr noundef %0) #30
  br label %tweak_split_index.exit

tweak_split_index.exit:                           ; preds = %tweak_untracked_cache.exit, %41, %42
  tail call void @tweak_fsmonitor(ptr noundef %0) #30
  ret void
}